; Function Attrs: nounwind uwtable
define internal void @edge_constructor(ptr noundef initializes((160, 172), (176, 240)) %0) #0 {
  %2 = load i32, ptr @pmix_class_init_epoch, align 4, !tbaa !3
  %3 = load i32, ptr getelementptr inbounds nuw (i8, ptr @pmix_list_item_t_class, i64 32), align 8, !tbaa !7
  %.not = icmp eq i32 %2, %3
  br i1 %.not, label %5, label %4

4:                                                ; preds = %1
  tail call void @pmix_class_initialize(ptr noundef nonnull @pmix_list_item_t_class) #14
  br label %5

5:                                                ; preds = %4, %1
  %6 = getelementptr inbounds nuw i8, ptr %0, i64 120
  %7 = getelementptr inbounds nuw i8, ptr %0, i64 160
  store ptr @pmix_list_item_t_class, ptr %7, align 8, !tbaa !13
  %8 = getelementptr inbounds nuw i8, ptr %0, i64 168
  store i32 1, ptr %8, align 8, !tbaa !16
  %9 = getelementptr inbounds nuw i8, ptr %0, i64 176
  tail call void @llvm.memset.p0.i64(ptr noundef nonnull align 8 dereferenceable(64) %9, i8 0, i64 64, i1 false)
  %10 = load ptr, ptr getelementptr inbounds nuw (i8, ptr @pmix_list_item_t_class, i64 40), align 8, !tbaa !17
  %11 = load ptr, ptr %10, align 8, !tbaa !18
  %.not6.i = icmp eq ptr %11, null
  br i1 %.not6.i, label %pmix_obj_run_constructors.exit, label %.lr.ph.i

.lr.ph.i:                                         ; preds = %5, %.lr.ph.i
  %12 = phi ptr [ %14, %.lr.ph.i ], [ %11, %5 ]
  %.07.i = phi ptr [ %13, %.lr.ph.i ], [ %10, %5 ]
  tail call void %12(ptr noundef nonnull %6) #14
  %13 = getelementptr inbounds nuw i8, ptr %.07.i, i64 8
  %14 = load ptr, ptr %13, align 8, !tbaa !18
  %.not.i = icmp eq ptr %14, null
  br i1 %.not.i, label %pmix_obj_run_constructors.exit, label %.lr.ph.i, !llvm.loop !19

pmix_obj_run_constructors.exit:                   ; preds = %.lr.ph.i, %5
  %15 = load i32, ptr @pmix_class_init_epoch, align 4, !tbaa !3
  %16 = load i32, ptr getelementptr inbounds nuw (i8, ptr @pmix_list_item_t_class, i64 32), align 8, !tbaa !7
  %.not8 = icmp eq i32 %15, %16
  br i1 %.not8, label %18, label %17

17:                                               ; preds = %pmix_obj_run_constructors.exit
  tail call void @pmix_class_initialize(ptr noundef nonnull @pmix_list_item_t_class) #14
  br label %18

18:                                               ; preds = %17, %pmix_obj_run_constructors.exit
  %19 = getelementptr inbounds nuw i8, ptr %0, i64 264
  %20 = getelementptr inbounds nuw i8, ptr %0, i64 304
  store ptr @pmix_list_item_t_class, ptr %20, align 8, !tbaa !13
  %21 = getelementptr inbounds nuw i8, ptr %0, i64 312
  store i32 1, ptr %21, align 8, !tbaa !16
  %22 = getelementptr inbounds nuw i8, ptr %0, i64 320
  tail call void @llvm.memset.p0.i64(ptr noundef nonnull align 8 dereferenceable(64) %22, i8 0, i64 64, i1 false)
  %23 = load ptr, ptr getelementptr inbounds nuw (i8, ptr @pmix_list_item_t_class, i64 40), align 8, !tbaa !17
  %24 = load ptr, ptr %23, align 8, !tbaa !18
  %.not6.i9 = icmp eq ptr %24, null
  br i1 %.not6.i9, label %pmix_obj_run_constructors.exit13, label %.lr.ph.i10

.lr.ph.i10:                                       ; preds = %18, %.lr.ph.i10
  %25 = phi ptr [ %27, %.lr.ph.i10 ], [ %24, %18 ]
  %.07.i11 = phi ptr [ %26, %.lr.ph.i10 ], [ %23, %18 ]
  tail call void %25(ptr noundef nonnull %19) #14
  %26 = getelementptr inbounds nuw i8, ptr %.07.i11, i64 8
  %27 = load ptr, ptr %26, align 8, !tbaa !18
  %.not.i12 = icmp eq ptr %27, null
  br i1 %.not.i12, label %pmix_obj_run_constructors.exit13, label %.lr.ph.i10, !llvm.loop !19

pmix_obj_run_constructors.exit13:                 ; preds = %.lr.ph.i10, %18
  ret void
}